; Function Attrs: nounwind uwtable
define nonnull ptr @l___private_Lean_Meta_WHNF_0__Lean_Meta_isWFRec___boxed(ptr noundef %0) local_unnamed_addr #1 {
  %2 = load ptr, ptr @l___private_Lean_Meta_WHNF_0__Lean_Meta_isWFRec___closed__3, align 8, !tbaa !12
  %3 = tail call zeroext i8 @lean_name_eq(ptr noundef %0, ptr noundef %2) #5
  %4 = icmp eq i8 %3, 0
  br i1 %4, label %5, label %l___private_Lean_Meta_WHNF_0__Lean_Meta_isWFRec.exit

5:                                                ; preds = %1
  %6 = load ptr, ptr @l___private_Lean_Meta_WHNF_0__Lean_Meta_isWFRec___closed__5, align 8, !tbaa !12
  %7 = tail call zeroext i8 @lean_name_eq(ptr noundef %0, ptr noundef %6) #5
  %8 = zext i8 %7 to i64
  %9 = shl nuw nsw i64 %8, 1
  %10 = or disjoint i64 %9, 1
  br label %l___private_Lean_Meta_WHNF_0__Lean_Meta_isWFRec.exit

l___private_Lean_Meta_WHNF_0__Lean_Meta_isWFRec.exit: ; preds = %1, %5
  %.0.i = phi i64 [ %10, %5 ], [ 3, %1 ]
  %11 = ptrtoint ptr %0 to i64
  %12 = and i64 %11, 1
  %.not = icmp eq i64 %12, 0
  br i1 %.not, label %13, label %lean_dec.exit

13:                                               ; preds = %l___private_Lean_Meta_WHNF_0__Lean_Meta_isWFRec.exit
  %14 = load i32, ptr %0, align 4, !tbaa !4
  %15 = icmp sgt i32 %14, 1
  br i1 %15, label %16, label %18, !prof !11

16:                                               ; preds = %13
  %17 = add nsw i32 %14, -1
  store i32 %17, ptr %0, align 4, !tbaa !4
  br label %lean_dec.exit

18:                                               ; preds = %13
  %.not.i = icmp eq i32 %14, 0
  br i1 %.not.i, label %lean_dec.exit, label %19

19:                                               ; preds = %18
  tail call void @lean_dec_ref_cold(ptr noundef nonnull %0) #5
  br label %lean_dec.exit

lean_dec.exit:                                    ; preds = %19, %18, %16, %l___private_Lean_Meta_WHNF_0__Lean_Meta_isWFRec.exit
  %20 = inttoptr i64 %.0.i to ptr
  ret ptr %20
}